target datalayout = "e-m:e-p270:32:32-p271:32:32-p272:64:64-i64:64-i128:128-f80:128-n8:16:32:64-S128"
target triple = "x86_64-pc-linux-gnu"

%union.pthread_attr_t = type { i64, [48 x i8] }

@slurmdbd_shutdown = internal global i64 0, align 8
@agent_tid = internal global i64 0, align 8
@agent_list = internal global ptr null, align 8
@.str.14 = private unnamed_addr constant [22 x i8] c"pthread_attr_init: %m\00", align 1
@.str.15 = private unnamed_addr constant [26 x i8] c"pthread_attr_setscope: %m\00", align 1
@.str.16 = private unnamed_addr constant [30 x i8] c"pthread_attr_setstacksize: %m\00", align 1
@.str.17 = private unnamed_addr constant [28 x i8] c"%s: pthread_create error %m\00", align 1
@__func__._create_agent = private unnamed_addr constant [14 x i8] c"_create_agent\00", align 1
@.str.18 = private unnamed_addr constant [55 x i8] c"pthread_attr_destroy failed, possible memory leak!: %m\00", align 1

; Function Attrs: nounwind uwtable
define internal void @_create_agent() #0 {
  %1 = alloca %union.pthread_attr_t, align 8
  %2 = alloca i32, align 4
  %3 = alloca i32, align 4
  %4 = alloca i32, align 4
  store i64 0, ptr @slurmdbd_shutdown, align 8
  %5 = load ptr, ptr @agent_list, align 8
  %6 = icmp eq ptr %5, null
  br i1 %6, label %7, label %9

7:                                                ; preds = %0
  %8 = call ptr @slurm_list_create(ptr noundef @slurm_slurmdbd_free_buffer)
  store ptr %8, ptr @agent_list, align 8
  call void @_load_dbd_state()
  br label %9

9:                                                ; preds = %7, %0
  %10 = load i64, ptr @agent_tid, align 8
  %11 = icmp eq i64 %10, 0
  br i1 %11, label %12, label %59

12:                                               ; preds = %9
  br label %13

13:                                               ; preds = %12
  call void @llvm.lifetime.start.p0(i64 56, ptr %1) #9
  call void @llvm.lifetime.start.p0(i64 4, ptr %2) #9
  br label %14

14:                                               ; preds = %13
  call void @llvm.lifetime.start.p0(i64 4, ptr %3) #9
  %15 = call i32 @pthread_attr_init(ptr noundef %1) #9
  store i32 %15, ptr %3, align 4
  %16 = load i32, ptr %3, align 4
  %17 = icmp ne i32 %16, 0
  br i1 %17, label %18, label %21

18:                                               ; preds = %14
  %19 = load i32, ptr %3, align 4
  %20 = call ptr @__errno_location() #10
  store i32 %19, ptr %20, align 4
  call void (ptr, ...) @slurm_fatal(ptr noundef @.str.14) #11
  unreachable

21:                                               ; preds = %14
  %22 = call i32 @pthread_attr_setscope(ptr noundef %1, i32 noundef 0) #9
  store i32 %22, ptr %3, align 4
  %23 = load i32, ptr %3, align 4
  %24 = icmp ne i32 %23, 0
  br i1 %24, label %25, label %29

25:                                               ; preds = %21
  %26 = load i32, ptr %3, align 4
  %27 = call ptr @__errno_location() #10
  store i32 %26, ptr %27, align 4
  %28 = call i32 (ptr, ...) @slurm_error(ptr noundef @.str.15)
  br label %29

29:                                               ; preds = %25, %21
  %30 = call i32 @pthread_attr_setstacksize(ptr noundef %1, i64 noundef 1048576) #9
  store i32 %30, ptr %3, align 4
  %31 = load i32, ptr %3, align 4
  %32 = icmp ne i32 %31, 0
  br i1 %32, label %33, label %37

33:                                               ; preds = %29
  %34 = load i32, ptr %3, align 4
  %35 = call ptr @__errno_location() #10
  store i32 %34, ptr %35, align 4
  %36 = call i32 (ptr, ...) @slurm_error(ptr noundef @.str.16)
  br label %37

37:                                               ; preds = %33, %29
  call void @llvm.lifetime.end.p0(i64 4, ptr %3) #9
  br label %38

38:                                               ; preds = %37
  br label %39

39:                                               ; preds = %38
  %40 = call i32 @pthread_create(ptr noundef @agent_tid, ptr noundef %1, ptr noundef @_agent, ptr noundef null) #9
  store i32 %40, ptr %2, align 4
  %41 = load i32, ptr %2, align 4
  %42 = icmp ne i32 %41, 0
  br i1 %42, label %43, label %46

43:                                               ; preds = %39
  %44 = load i32, ptr %2, align 4
  %45 = call ptr @__errno_location() #10
  store i32 %44, ptr %45, align 4
  call void (ptr, ...) @slurm_fatal(ptr noundef @.str.17, ptr noundef @__func__._create_agent) #11
  unreachable

46:                                               ; preds = %39
  br label %47

47:                                               ; preds = %46
  call void @llvm.lifetime.start.p0(i64 4, ptr %4) #9
  %48 = call i32 @pthread_attr_destroy(ptr noundef %1) #9
  store i32 %48, ptr %4, align 4
  %49 = load i32, ptr %4, align 4
  %50 = icmp ne i32 %49, 0
  br i1 %50, label %51, label %55

51:                                               ; preds = %47
  %52 = load i32, ptr %4, align 4
  %53 = call ptr @__errno_location() #10
  store i32 %52, ptr %53, align 4
  %54 = call i32 (ptr, ...) @slurm_error(ptr noundef @.str.18)
  br label %55

55:                                               ; preds = %51, %47
  call void @llvm.lifetime.end.p0(i64 4, ptr %4) #9
  br label %56

56:                                               ; preds = %55
  br label %57

57:                                               ; preds = %56
  call void @llvm.lifetime.end.p0(i64 4, ptr %2) #9
  call void @llvm.lifetime.end.p0(i64 56, ptr %1) #9
  br label %58

58:                                               ; preds = %57
  br label %59

59:                                               ; preds = %58, %9
  ret void
}