; Function Attrs: nounwind uwtable
define internal fastcc void @_create_agent() unnamed_addr #0 {
  %1 = alloca %union.pthread_attr_t, align 8
  store i64 0, ptr @slurmdbd_shutdown, align 8
  %2 = load ptr, ptr @agent_list, align 8
  %3 = icmp eq ptr %2, null
  br i1 %3, label %4, label %6

4:                                                ; preds = %0
  %5 = tail call ptr @slurm_list_create(ptr noundef nonnull @slurm_slurmdbd_free_buffer) #13
  store ptr %5, ptr @agent_list, align 8
  tail call fastcc void @_load_dbd_state()
  br label %6

6:                                                ; preds = %4, %0
  %7 = load i64, ptr @agent_tid, align 8
  %8 = icmp eq i64 %7, 0
  br i1 %8, label %9, label %33

9:                                                ; preds = %6
  call void @llvm.lifetime.start.p0(i64 56, ptr nonnull %1) #13
  %10 = call i32 @pthread_attr_init(ptr noundef nonnull %1) #13
  %.not = icmp eq i32 %10, 0
  br i1 %.not, label %13, label %11

11:                                               ; preds = %9
  %12 = tail call ptr @__errno_location() #14
  store i32 %10, ptr %12, align 4
  call void (ptr, ...) @slurm_fatal(ptr noundef nonnull @.str.14) #15
  unreachable

13:                                               ; preds = %9
  %14 = call i32 @pthread_attr_setscope(ptr noundef nonnull %1, i32 noundef 0) #13
  %.not14 = icmp eq i32 %14, 0
  br i1 %.not14, label %18, label %15

15:                                               ; preds = %13
  %16 = tail call ptr @__errno_location() #14
  store i32 %14, ptr %16, align 4
  %17 = call i32 (ptr, ...) @slurm_error(ptr noundef nonnull @.str.15) #13
  br label %18

18:                                               ; preds = %15, %13
  %19 = call i32 @pthread_attr_setstacksize(ptr noundef nonnull %1, i64 noundef 1048576) #13
  %.not15 = icmp eq i32 %19, 0
  br i1 %.not15, label %23, label %20

20:                                               ; preds = %18
  %21 = tail call ptr @__errno_location() #14
  store i32 %19, ptr %21, align 4
  %22 = call i32 (ptr, ...) @slurm_error(ptr noundef nonnull @.str.16) #13
  br label %23

23:                                               ; preds = %20, %18
  %24 = call i32 @pthread_create(ptr noundef nonnull @agent_tid, ptr noundef nonnull %1, ptr noundef nonnull @_agent, ptr noundef null) #13
  %.not16 = icmp eq i32 %24, 0
  br i1 %.not16, label %27, label %25

25:                                               ; preds = %23
  %26 = tail call ptr @__errno_location() #14
  store i32 %24, ptr %26, align 4
  call void (ptr, ...) @slurm_fatal(ptr noundef nonnull @.str.17, ptr noundef nonnull @__func__._create_agent) #15
  unreachable

27:                                               ; preds = %23
  %28 = call i32 @pthread_attr_destroy(ptr noundef nonnull %1) #13
  %.not17 = icmp eq i32 %28, 0
  br i1 %.not17, label %32, label %29

29:                                               ; preds = %27
  %30 = tail call ptr @__errno_location() #14
  store i32 %28, ptr %30, align 4
  %31 = call i32 (ptr, ...) @slurm_error(ptr noundef nonnull @.str.18) #13
  br label %32

32:                                               ; preds = %29, %27
  call void @llvm.lifetime.end.p0(i64 56, ptr nonnull %1) #13
  br label %33

33:                                               ; preds = %32, %6
  ret void
}